target datalayout = "e-m:e-p270:32:32-p271:32:32-p272:64:64-i64:64-i128:128-f80:128-n8:16:32:64-S128"
target triple = "x86_64-pc-linux-gnu"

%struct.PJconsts = type <{ ptr, ptr, ptr, ptr, ptr, ptr, ptr, ptr, ptr, ptr, ptr, ptr, i32, [4 x i8], ptr, ptr, ptr, ptr, ptr, ptr, ptr, ptr, double, double, double, double, double, double, double, double, double, double, double, double, double, double, double, double, double, double, double, double, double, double, i32, i32, i32, i32, i32, i32, i32, i32, i32, i32, i32, [4 x i8], ptr, ptr, ptr, ptr, ptr, ptr, double, double, double, double, double, double, double, double, double, double, double, i32, [4 x i8], [7 x double], i32, [4 x i8], ptr, ptr, double, double, i32, [4 x i8], %"class.std::shared_ptr", i8, [7 x i8], double, i8, [7 x i8], %"class.std::__cxx11::basic_string", %"class.std::__cxx11::basic_string", %"class.std::__cxx11::basic_string", i8, [7 x i8], %"class.std::vector", i32, [4 x i8], %"class.std::vector.3", i32, i8, i8, i8, i8 }>
%"class.std::shared_ptr" = type { %"class.std::__shared_ptr" }
%"class.std::__shared_ptr" = type { ptr, %"class.std::__shared_count" }
%"class.std::__shared_count" = type { ptr }
%"class.std::__cxx11::basic_string" = type { %"struct.std::__cxx11::basic_string<char>::_Alloc_hider", i64, %union.anon }
%"struct.std::__cxx11::basic_string<char>::_Alloc_hider" = type { ptr }
%union.anon = type { i64, [8 x i8] }
%"class.std::vector" = type { %"struct.std::_Vector_base" }
%"struct.std::_Vector_base" = type { %"struct.std::_Vector_base<osgeo::proj::operation::GridDescription, std::allocator<osgeo::proj::operation::GridDescription>>::_Vector_impl" }
%"struct.std::_Vector_base<osgeo::proj::operation::GridDescription, std::allocator<osgeo::proj::operation::GridDescription>>::_Vector_impl" = type { %"struct.std::_Vector_base<osgeo::proj::operation::GridDescription, std::allocator<osgeo::proj::operation::GridDescription>>::_Vector_impl_data" }
%"struct.std::_Vector_base<osgeo::proj::operation::GridDescription, std::allocator<osgeo::proj::operation::GridDescription>>::_Vector_impl_data" = type { ptr, ptr, ptr }
%"class.std::vector.3" = type { %"struct.std::_Vector_base.4" }
%"struct.std::_Vector_base.4" = type { %"struct.std::_Vector_base<PJCoordOperation, std::allocator<PJCoordOperation>>::_Vector_impl" }
%"struct.std::_Vector_base<PJCoordOperation, std::allocator<PJCoordOperation>>::_Vector_impl" = type { %"struct.std::_Vector_base<PJCoordOperation, std::allocator<PJCoordOperation>>::_Vector_impl_data" }
%"struct.std::_Vector_base<PJCoordOperation, std::allocator<PJCoordOperation>>::_Vector_impl_data" = type { ptr, ptr, ptr }
%struct.PJ_LP = type { double, double }
%struct.PJ_XY = type { double, double }

; Function Attrs: mustprogress uwtable
define internal { double, double } @_ZL13cea_e_forward5PJ_LPP8PJconsts(double %0, double %1, ptr noundef %2) #0 {
  %4 = alloca %struct.PJ_XY, align 8
  %5 = alloca %struct.PJ_LP, align 8
  %6 = alloca ptr, align 8
  %7 = getelementptr inbounds { double, double }, ptr %5, i32 0, i32 0
  store double %0, ptr %7, align 8
  %8 = getelementptr inbounds { double, double }, ptr %5, i32 0, i32 1
  store double %1, ptr %8, align 8
  store ptr %2, ptr %6, align 8
  call void @llvm.memset.p0.i64(ptr align 8 %4, i8 0, i64 16, i1 false)
  %9 = load ptr, ptr %6, align 8
  %10 = getelementptr inbounds %struct.PJconsts, ptr %9, i32 0, i32 68
  %11 = load double, ptr %10, align 8
  %12 = getelementptr inbounds %struct.PJ_LP, ptr %5, i32 0, i32 0
  %13 = load double, ptr %12, align 8
  %14 = fmul double %11, %13
  %15 = getelementptr inbounds %struct.PJ_XY, ptr %4, i32 0, i32 0
  store double %14, ptr %15, align 8
  %16 = getelementptr inbounds %struct.PJ_LP, ptr %5, i32 0, i32 1
  %17 = load double, ptr %16, align 8
  %18 = call double @sin(double noundef %17) #8
  %19 = load ptr, ptr %6, align 8
  %20 = getelementptr inbounds %struct.PJconsts, ptr %19, i32 0, i32 27
  %21 = load double, ptr %20, align 8
  %22 = load ptr, ptr %6, align 8
  %23 = getelementptr inbounds %struct.PJconsts, ptr %22, i32 0, i32 33
  %24 = load double, ptr %23, align 8
  %25 = call noundef double @_Z7pj_qsfnddd(double noundef %18, double noundef %21, double noundef %24)
  %26 = fmul double 5.000000e-01, %25
  %27 = load ptr, ptr %6, align 8
  %28 = getelementptr inbounds %struct.PJconsts, ptr %27, i32 0, i32 68
  %29 = load double, ptr %28, align 8
  %30 = fdiv double %26, %29
  %31 = getelementptr inbounds %struct.PJ_XY, ptr %4, i32 0, i32 1
  store double %30, ptr %31, align 8
  %32 = load { double, double }, ptr %4, align 8
  ret { double, double } %32
}