; Function Attrs: mustprogress uwtable
define internal { double, double } @_ZL13cea_e_forward5PJ_LPP8PJconsts(double %0, double %1, ptr nocapture noundef readonly %2) #0 {
  %4 = getelementptr inbounds i8, ptr %2, i64 488
  %5 = load double, ptr %4, align 8
  %6 = fmul double %5, %0
  %7 = tail call double @sin(double noundef %1) #8
  %8 = getelementptr inbounds i8, ptr %2, i64 208
  %9 = load double, ptr %8, align 8
  %10 = getelementptr inbounds i8, ptr %2, i64 256
  %11 = load double, ptr %10, align 8
  %12 = tail call noundef double @_Z7pj_qsfnddd(double noundef %7, double noundef %9, double noundef %11)
  %13 = fmul double %12, 5.000000e-01
  %14 = load double, ptr %4, align 8
  %15 = fdiv double %13, %14
  %.fca.0.insert = insertvalue { double, double } poison, double %6, 0
  %.fca.1.insert = insertvalue { double, double } %.fca.0.insert, double %15, 1
  ret { double, double } %.fca.1.insert
}